target datalayout = "e-m:e-p270:32:32-p271:32:32-p272:64:64-i64:64-i128:128-f80:128-n8:16:32:64-S128"
target triple = "x86_64-pc-linux-gnu"

%struct.ItemPointerData = type { %struct.BlockIdData, i16 }
%struct.BlockIdData = type { i16, i16 }
%struct.SysScanDescData = type { ptr, ptr, ptr, ptr, ptr, ptr }
%struct.TupleTableSlot = type { i32, i16, i16, ptr, ptr, ptr, ptr, ptr, %struct.ItemPointerData, i32 }
%struct.BufferHeapTupleTableSlot = type { %struct.HeapTupleTableSlot, i32 }
%struct.HeapTupleTableSlot = type { %struct.TupleTableSlot, ptr, i32, %struct.HeapTupleData }
%struct.HeapTupleData = type { i32, %struct.ItemPointerData, i32, ptr }

@.str.4 = private unnamed_addr constant [8 x i8] c"genam.c\00", align 1
@.str.8 = private unnamed_addr constant [49 x i8] c"cannot update tuples during a parallel operation\00", align 1
@__func__.systable_inplace_update_begin = private unnamed_addr constant [30 x i8] c"systable_inplace_update_begin\00", align 1
@InterruptPending = external global i32, align 4
@.str.9 = private unnamed_addr constant [48 x i8] c"giving up after too many tries to overwrite row\00", align 1

; Function Attrs: nounwind uwtable
define dso_local void @systable_inplace_update_begin(ptr noundef %0, i32 noundef %1, i1 noundef zeroext %2, ptr noundef %3, i32 noundef %4, ptr noundef %5, ptr noundef %6, ptr noundef %7) #0 {
  %9 = alloca ptr, align 8
  %10 = alloca i32, align 4
  %11 = alloca i8, align 1
  %12 = alloca ptr, align 8
  %13 = alloca i32, align 4
  %14 = alloca ptr, align 8
  %15 = alloca ptr, align 8
  %16 = alloca ptr, align 8
  %17 = alloca i32, align 4
  %18 = alloca ptr, align 8
  %19 = alloca ptr, align 8
  %20 = alloca ptr, align 8
  %21 = alloca ptr, align 8
  %22 = alloca i32, align 4
  %23 = alloca i32, align 4
  store ptr %0, ptr %9, align 8
  store i32 %1, ptr %10, align 4
  %24 = zext i1 %2 to i8
  store i8 %24, ptr %11, align 1
  store ptr %3, ptr %12, align 8
  store i32 %4, ptr %13, align 4
  store ptr %5, ptr %14, align 8
  store ptr %6, ptr %15, align 8
  store ptr %7, ptr %16, align 8
  call void @llvm.lifetime.start.p0(i64 4, ptr %17) #7
  store i32 0, ptr %17, align 4
  call void @llvm.lifetime.start.p0(i64 8, ptr %18) #7
  call void @llvm.lifetime.start.p0(i64 8, ptr %19) #7
  call void @llvm.lifetime.start.p0(i64 8, ptr %20) #7
  %25 = call zeroext i1 @IsInParallelMode()
  br i1 %25, label %26, label %38

26:                                               ; preds = %8
  br label %27

27:                                               ; preds = %26
  br i1 true, label %28, label %30

28:                                               ; preds = %27
  %29 = call zeroext i1 @errstart_cold(i32 noundef 21, ptr noundef null) #8
  br i1 %29, label %32, label %35

30:                                               ; preds = %27
  %31 = call zeroext i1 @errstart(i32 noundef 21, ptr noundef null)
  br i1 %31, label %32, label %35

32:                                               ; preds = %30, %28
  %33 = call i32 @errcode(i32 noundef 322)
  %34 = call i32 (ptr, ...) @errmsg(ptr noundef @.str.8)
  call void @errfinish(ptr noundef @.str.4, i32 noundef 832, ptr noundef @__func__.systable_inplace_update_begin)
  br label %35

35:                                               ; preds = %32, %30, %28
  unreachable

36:                                               ; No predecessors!
  br label %37

37:                                               ; preds = %36
  br label %38

38:                                               ; preds = %37, %8
  br label %39

39:                                               ; preds = %92, %38
  call void @llvm.lifetime.start.p0(i64 8, ptr %21) #7
  br label %40

40:                                               ; preds = %39
  %41 = load volatile i32, ptr @InterruptPending, align 4
  %42 = icmp ne i32 %41, 0
  %43 = zext i1 %42 to i32
  %44 = sext i32 %43 to i64
  %45 = call i64 @llvm.expect.i64(i64 %44, i64 0)
  %46 = icmp ne i64 %45, 0
  br i1 %46, label %47, label %48

47:                                               ; preds = %40
  call void @ProcessInterrupts()
  br label %48

48:                                               ; preds = %47, %40
  br label %49

49:                                               ; preds = %48
  br label %50

50:                                               ; preds = %49
  %51 = load i32, ptr %17, align 4
  %52 = add i32 %51, 1
  store i32 %52, ptr %17, align 4
  %53 = icmp sgt i32 %51, 10000
  br i1 %53, label %54, label %65

54:                                               ; preds = %50
  br label %55

55:                                               ; preds = %54
  br i1 true, label %56, label %58

56:                                               ; preds = %55
  %57 = call zeroext i1 @errstart_cold(i32 noundef 21, ptr noundef null) #8
  br i1 %57, label %60, label %62

58:                                               ; preds = %55
  %59 = call zeroext i1 @errstart(i32 noundef 21, ptr noundef null)
  br i1 %59, label %60, label %62

60:                                               ; preds = %58, %56
  %61 = call i32 (ptr, ...) @errmsg_internal(ptr noundef @.str.9)
  call void @errfinish(ptr noundef @.str.4, i32 noundef 855, ptr noundef @__func__.systable_inplace_update_begin)
  br label %62

62:                                               ; preds = %60, %58, %56
  unreachable

63:                                               ; No predecessors!
  br label %64

64:                                               ; preds = %63
  br label %65

65:                                               ; preds = %64, %50
  %66 = load ptr, ptr %9, align 8
  %67 = load i32, ptr %10, align 4
  %68 = load i8, ptr %11, align 1, !range !4, !noundef !5
  %69 = trunc i8 %68 to i1
  %70 = load ptr, ptr %12, align 8
  %71 = load i32, ptr %13, align 4
  br label %72

72:                                               ; preds = %65
  br label %73

73:                                               ; preds = %72
  br label %74

74:                                               ; preds = %73
  store i32 1, ptr %22, align 4
  %75 = load ptr, ptr %14, align 8
  %76 = call ptr @systable_beginscan(ptr noundef %66, i32 noundef %67, i1 noundef zeroext %69, ptr noundef %70, i32 noundef %71, ptr noundef %75)
  store ptr %76, ptr %18, align 8
  %77 = load ptr, ptr %18, align 8
  %78 = call ptr @systable_getnext(ptr noundef %77)
  store ptr %78, ptr %19, align 8
  %79 = load ptr, ptr %19, align 8
  %80 = icmp ne ptr %79, null
  br i1 %80, label %84, label %81

81:                                               ; preds = %74
  %82 = load ptr, ptr %18, align 8
  call void @systable_endscan(ptr noundef %82)
  %83 = load ptr, ptr %15, align 8
  store ptr null, ptr %83, align 8
  store i32 1, ptr %23, align 4
  br label %89

84:                                               ; preds = %74
  %85 = load ptr, ptr %18, align 8
  %86 = getelementptr inbounds nuw %struct.SysScanDescData, ptr %85, i32 0, i32 5
  %87 = load ptr, ptr %86, align 8
  store ptr %87, ptr %21, align 8
  %88 = load ptr, ptr %21, align 8
  store ptr %88, ptr %20, align 8
  store i32 0, ptr %23, align 4
  br label %89

89:                                               ; preds = %84, %81
  call void @llvm.lifetime.end.p0(i64 8, ptr %21) #7
  %90 = load i32, ptr %23, align 4
  switch i32 %90, label %112 [
    i32 0, label %91
  ]

91:                                               ; preds = %89
  br label %92

92:                                               ; preds = %91
  %93 = load ptr, ptr %18, align 8
  %94 = getelementptr inbounds nuw %struct.SysScanDescData, ptr %93, i32 0, i32 0
  %95 = load ptr, ptr %94, align 8
  %96 = load ptr, ptr %20, align 8
  %97 = getelementptr inbounds nuw %struct.BufferHeapTupleTableSlot, ptr %96, i32 0, i32 0
  %98 = getelementptr inbounds nuw %struct.HeapTupleTableSlot, ptr %97, i32 0, i32 1
  %99 = load ptr, ptr %98, align 8
  %100 = load ptr, ptr %20, align 8
  %101 = getelementptr inbounds nuw %struct.BufferHeapTupleTableSlot, ptr %100, i32 0, i32 1
  %102 = load i32, ptr %101, align 8
  %103 = load ptr, ptr %18, align 8
  %104 = call zeroext i1 @heap_inplace_lock(ptr noundef %95, ptr noundef %99, i32 noundef %102, ptr noundef @systable_endscan, ptr noundef %103)
  %105 = xor i1 %104, true
  br i1 %105, label %39, label %106, !llvm.loop !14

106:                                              ; preds = %92
  %107 = load ptr, ptr %19, align 8
  %108 = call ptr @heap_copytuple(ptr noundef %107)
  %109 = load ptr, ptr %15, align 8
  store ptr %108, ptr %109, align 8
  %110 = load ptr, ptr %18, align 8
  %111 = load ptr, ptr %16, align 8
  store ptr %110, ptr %111, align 8
  store i32 0, ptr %23, align 4
  br label %112

112:                                              ; preds = %106, %89
  call void @llvm.lifetime.end.p0(i64 8, ptr %20) #7
  call void @llvm.lifetime.end.p0(i64 8, ptr %19) #7
  call void @llvm.lifetime.end.p0(i64 8, ptr %18) #7
  call void @llvm.lifetime.end.p0(i64 4, ptr %17) #7
  %113 = load i32, ptr %23, align 4
  switch i32 %113, label %115 [
    i32 0, label %114
    i32 1, label %114
  ]

114:                                              ; preds = %112, %112
  ret void

115:                                              ; preds = %112
  unreachable
}