; Function Attrs: nounwind uwtable
define dso_local void @systable_inplace_update_begin(ptr noundef %0, i32 noundef %1, i1 noundef zeroext %2, ptr noundef %3, i32 noundef %4, ptr noundef %5, ptr noundef writeonly captures(none) %6, ptr noundef writeonly captures(none) %7) local_unnamed_addr #0 {
  %9 = tail call zeroext i1 @IsInParallelMode() #7
  br i1 %9, label %10, label %.preheader

10:                                               ; preds = %8
  %11 = tail call zeroext i1 @errstart_cold(i32 noundef 21, ptr noundef null) #8
  tail call void @llvm.assume(i1 %11)
  %12 = tail call i32 @errcode(i32 noundef 322) #7
  %13 = tail call i32 (ptr, ...) @errmsg(ptr noundef nonnull @.str.8) #7
  tail call void @errfinish(ptr noundef nonnull @.str.4, i32 noundef 832, ptr noundef nonnull @__func__.systable_inplace_update_begin) #7
  unreachable

.preheader:                                       ; preds = %8, %24
  %.021 = phi i32 [ %17, %24 ], [ 0, %8 ]
  %14 = load volatile i32, ptr @InterruptPending, align 4
  %.not = icmp eq i32 %14, 0
  br i1 %.not, label %16, label %15, !prof !12

15:                                               ; preds = %.preheader
  tail call void @ProcessInterrupts() #7
  br label %16

16:                                               ; preds = %15, %.preheader
  %17 = add nuw nsw i32 %.021, 1
  %exitcond = icmp eq i32 %.021, 10001
  br i1 %exitcond, label %18, label %21

18:                                               ; preds = %16
  %19 = tail call zeroext i1 @errstart_cold(i32 noundef 21, ptr noundef null) #8
  tail call void @llvm.assume(i1 %19)
  %20 = tail call i32 (ptr, ...) @errmsg_internal(ptr noundef nonnull @.str.9) #7
  tail call void @errfinish(ptr noundef nonnull @.str.4, i32 noundef 855, ptr noundef nonnull @__func__.systable_inplace_update_begin) #7
  unreachable

21:                                               ; preds = %16
  %22 = tail call ptr @systable_beginscan(ptr noundef %0, i32 noundef %1, i1 noundef zeroext %2, ptr noundef %3, i32 noundef %4, ptr noundef %5)
  %23 = tail call ptr @systable_getnext(ptr noundef %22)
  %.not23.not = icmp eq ptr %23, null
  br i1 %.not23.not, label %.thread, label %24

.thread:                                          ; preds = %21
  tail call void @systable_endscan(ptr noundef %22)
  store ptr null, ptr %6, align 8
  br label %35

24:                                               ; preds = %21
  %25 = getelementptr inbounds nuw i8, ptr %22, i64 40
  %26 = load ptr, ptr %25, align 8
  %27 = load ptr, ptr %22, align 8
  %28 = getelementptr inbounds nuw i8, ptr %26, i64 64
  %29 = load ptr, ptr %28, align 8
  %30 = getelementptr inbounds nuw i8, ptr %26, i64 104
  %31 = load i32, ptr %30, align 8
  %32 = tail call zeroext i1 @heap_inplace_lock(ptr noundef %27, ptr noundef %29, i32 noundef %31, ptr noundef nonnull @systable_endscan, ptr noundef nonnull %22) #7
  br i1 %32, label %33, label %.preheader, !llvm.loop !15

33:                                               ; preds = %24
  %34 = tail call ptr @heap_copytuple(ptr noundef nonnull %23) #7
  store ptr %34, ptr %6, align 8
  store ptr %22, ptr %7, align 8
  br label %35

35:                                               ; preds = %.thread, %33
  ret void
}